	.file	"datos.c"
	.text
.Ltext0:
	.file 0 "/root/taller_geometria" "datos.c"
	.section	.rodata
.LC0:
	.string	"\n MENU:"
	.align 8
.LC1:
	.string	"-------AREA Y PERIMETRO-------"
.LC2:
	.string	"1. Triangulo"
.LC3:
	.string	"2. Paralelogramo"
.LC4:
	.string	"3. Cuadrado"
.LC5:
	.string	"4. Rect\303\241ngulo"
.LC6:
	.string	"5. Rombo"
.LC7:
	.string	"6. Trapecio"
.LC8:
	.string	"7. Circulo"
.LC9:
	.string	"8. Poligono regular"
	.align 8
.LC10:
	.string	"-------SUPERFICIE Y VOLUMEN---------"
.LC11:
	.string	"9. Cubo"
.LC12:
	.string	"10. Cuboide"
.LC13:
	.string	"11. Cilindro recto"
.LC14:
	.string	"12. Esfera"
.LC15:
	.string	"13. Cono circular recto"
.LC16:
	.string	"\n\n ELIJA UNA OPCION: "
	.text
	.globl	mostrarMenu
	.type	mostrarMenu, @function
mostrarMenu:
.LFB0:
	.file 1 "datos.c"
	.loc 1 5 20
	.cfi_startproc
	endbr64
	pushq	%rbp
	.cfi_def_cfa_offset 16
	.cfi_offset 6, -16
	movq	%rsp, %rbp
	.cfi_def_cfa_register 6
	.loc 1 6 5
	leaq	.LC0(%rip), %rax
	movq	%rax, %rdi
	call	puts@PLT
	.loc 1 7 5
	leaq	.LC1(%rip), %rax
	movq	%rax, %rdi
	call	puts@PLT
	.loc 1 8 5
	leaq	.LC2(%rip), %rax
	movq	%rax, %rdi
	call	puts@PLT
	.loc 1 9 5
	leaq	.LC3(%rip), %rax
	movq	%rax, %rdi
	call	puts@PLT
	.loc 1 10 5
	leaq	.LC4(%rip), %rax
	movq	%rax, %rdi
	call	puts@PLT
	.loc 1 11 5
	leaq	.LC5(%rip), %rax
	movq	%rax, %rdi
	call	puts@PLT
	.loc 1 12 5
	leaq	.LC6(%rip), %rax
	movq	%rax, %rdi
	call	puts@PLT
	.loc 1 13 5
	leaq	.LC7(%rip), %rax
	movq	%rax, %rdi
	call	puts@PLT
	.loc 1 14 5
	leaq	.LC8(%rip), %rax
	movq	%rax, %rdi
	call	puts@PLT
	.loc 1 15 5
	leaq	.LC9(%rip), %rax
	movq	%rax, %rdi
	call	puts@PLT
	.loc 1 16 5
	movl	$10, %edi
	call	putchar@PLT
	.loc 1 17 5
	leaq	.LC10(%rip), %rax
	movq	%rax, %rdi
	call	puts@PLT
	.loc 1 18 5
	leaq	.LC11(%rip), %rax
	movq	%rax, %rdi
	call	puts@PLT
	.loc 1 19 5
	leaq	.LC12(%rip), %rax
	movq	%rax, %rdi
	call	puts@PLT
	.loc 1 20 5
	leaq	.LC13(%rip), %rax
	movq	%rax, %rdi
	call	puts@PLT
	.loc 1 21 5
	leaq	.LC14(%rip), %rax
	movq	%rax, %rdi
	call	puts@PLT
	.loc 1 22 5
	leaq	.LC15(%rip), %rax
	movq	%rax, %rdi
	call	puts@PLT
	.loc 1 23 5
	leaq	.LC16(%rip), %rax
	movq	%rax, %rdi
	movl	$0, %eax
	call	printf@PLT
	.loc 1 24 1
	nop
	popq	%rbp
	.cfi_def_cfa 7, 8
	ret
	.cfi_endproc
.LFE0:
	.size	mostrarMenu, .-mostrarMenu
	.section	.rodata
	.align 8
.LC17:
	.string	"Ingrese la base del triangulo: "
.LC18:
	.string	"%lf"
	.align 8
.LC19:
	.string	"Ingrese la altura del triangulo: "
	.align 8
.LC20:
	.string	"Ingrese el primer lado del triangulo: "
	.align 8
.LC21:
	.string	"Ingrese el segundo lado del triangulo: "
	.align 8
.LC22:
	.string	"Ingrese la base del paralelogramo: "
	.align 8
.LC23:
	.string	"Ingrese la altura del paralelogramo: "
	.align 8
.LC24:
	.string	"Ingrese el lado del paralelogramo: "
	.align 8
.LC25:
	.string	"Ingrese el lado del cuadrado: "
	.align 8
.LC26:
	.string	"Ingrese la longitud del rect\303\241ngulo: "
	.align 8
.LC27:
	.string	"Ingrese el ancho del rect\303\241ngulo: "
	.align 8
.LC28:
	.string	"Ingrese la diagonal mayor del rombo: "
	.align 8
.LC29:
	.string	"Ingrese la diagonal menor del rombo: "
.LC30:
	.string	"Ingrese el lado del rombo: "
	.align 8
.LC31:
	.string	"Ingrese la base mayor del trapecio: "
	.align 8
.LC32:
	.string	"Ingrese la base menor del trapecio: "
	.align 8
.LC33:
	.string	"Ingrese la altura del trapecio: "
	.align 8
.LC34:
	.string	"Ingrese un lado no paralelo del trapecio: "
	.align 8
.LC35:
	.string	"Ingrese el otro lado no paralelo: "
	.align 8
.LC36:
	.string	"Ingrese el radio del c\303\255rculo: "
	.align 8
.LC37:
	.string	"Ingrese el n\303\272mero de lados del pol\303\255gono: "
.LC38:
	.string	"%d"
	.align 8
.LC39:
	.string	"Ingrese la longitud de un lado del pol\303\255gono: "
	.align 8
.LC40:
	.string	"Ingrese la longitud del lado del cubo: "
	.align 8
.LC41:
	.string	"Ingrese la longitud del cuboide: "
	.align 8
.LC42:
	.string	"Ingrese el ancho del cuboide: "
	.align 8
.LC43:
	.string	"Ingrese la altura del cuboide: "
	.align 8
.LC44:
	.string	"Ingrese el radio del cilindro: "
	.align 8
.LC45:
	.string	"Ingrese la altura del cilindro: "
	.align 8
.LC46:
	.string	"Ingrese el radio de la esfera: "
.LC47:
	.string	"Ingrese el radio del cono: "
.LC48:
	.string	"Ingrese la altura del cono: "
.LC49:
	.string	"Figura no v\303\241lida."
	.text
	.globl	solicitarDatosFigura
	.type	solicitarDatosFigura, @function
solicitarDatosFigura:
.LFB1:
	.loc 1 26 39
	.cfi_startproc
	endbr64
	pushq	%rbp
	.cfi_def_cfa_offset 16
	.cfi_offset 6, -16
	movq	%rsp, %rbp
	.cfi_def_cfa_register 6
	subq	$96, %rsp
	movl	%edi, -84(%rbp)
	.loc 1 26 39
	movq	%fs:40, %rax
	movq	%rax, -8(%rbp)
	xorl	%eax, %eax
	.loc 1 32 2
	cmpl	$13, -84(%rbp)
	ja	.L3
	movl	-84(%rbp), %eax
	leaq	0(,%rax,4), %rdx
	leaq	.L5(%rip), %rax
	movl	(%rdx,%rax), %eax
	cltq
	leaq	.L5(%rip), %rdx
	addq	%rdx, %rax
	notrack jmp	*%rax
	.section	.rodata
	.align 4
	.align 4
.L5:
	.long	.L3-.L5
	.long	.L17-.L5
	.long	.L16-.L5
	.long	.L15-.L5
	.long	.L14-.L5
	.long	.L13-.L5
	.long	.L12-.L5
	.long	.L11-.L5
	.long	.L10-.L5
	.long	.L9-.L5
	.long	.L8-.L5
	.long	.L7-.L5
	.long	.L6-.L5
	.long	.L4-.L5
	.text
.L17:
	.loc 1 34 4
	leaq	.LC17(%rip), %rax
	movq	%rax, %rdi
	movl	$0, %eax
	call	printf@PLT
	.loc 1 35 4
	leaq	-48(%rbp), %rax
	movq	%rax, %rsi
	leaq	.LC18(%rip), %rax
	movq	%rax, %rdi
	movl	$0, %eax
	call	__isoc99_scanf@PLT
	.loc 1 36 4
	leaq	.LC19(%rip), %rax
	movq	%rax, %rdi
	movl	$0, %eax
	call	printf@PLT
	.loc 1 37 4
	leaq	-80(%rbp), %rax
	movq	%rax, %rsi
	leaq	.LC18(%rip), %rax
	movq	%rax, %rdi
	movl	$0, %eax
	call	__isoc99_scanf@PLT
	.loc 1 38 4
	leaq	.LC20(%rip), %rax
	movq	%rax, %rdi
	movl	$0, %eax
	call	printf@PLT
	.loc 1 39 4
	leaq	-72(%rbp), %rax
	movq	%rax, %rsi
	leaq	.LC18(%rip), %rax
	movq	%rax, %rdi
	movl	$0, %eax
	call	__isoc99_scanf@PLT
	.loc 1 40 4
	leaq	.LC21(%rip), %rax
	movq	%rax, %rdi
	movl	$0, %eax
	call	printf@PLT
	.loc 1 41 4
	leaq	-64(%rbp), %rax
	movq	%rax, %rsi
	leaq	.LC18(%rip), %rax
	movq	%rax, %rdi
	movl	$0, %eax
	call	__isoc99_scanf@PLT
	.loc 1 43 11
	movsd	-80(%rbp), %xmm0
	movq	-48(%rbp), %rax
	movapd	%xmm0, %xmm1
	movq	%rax, %xmm0
	call	areaTriangulo@PLT
	movq	%xmm0, %rax
	movq	%rax, -24(%rbp)
	.loc 1 44 16
	movsd	-64(%rbp), %xmm1
	movsd	-72(%rbp), %xmm0
	movq	-48(%rbp), %rax
	movapd	%xmm1, %xmm2
	movapd	%xmm0, %xmm1
	movq	%rax, %xmm0
	call	perimetroTriangulo@PLT
	movq	%xmm0, %rax
	movq	%rax, -16(%rbp)
	.loc 1 46 4
	movsd	-16(%rbp), %xmm0
	movq	-24(%rbp), %rax
	movapd	%xmm0, %xmm1
	movq	%rax, %xmm0
	call	mostrarResultado
	.loc 1 47 4
	jmp	.L18
.L16:
	.loc 1 50 4
	leaq	.LC22(%rip), %rax
	movq	%rax, %rdi
	movl	$0, %eax
	call	printf@PLT
	.loc 1 51 4
	leaq	-48(%rbp), %rax
	movq	%rax, %rsi
	leaq	.LC18(%rip), %rax
	movq	%rax, %rdi
	movl	$0, %eax
	call	__isoc99_scanf@PLT
	.loc 1 52 4
	leaq	.LC23(%rip), %rax
	movq	%rax, %rdi
	movl	$0, %eax
	call	printf@PLT
	.loc 1 53 4
	leaq	-80(%rbp), %rax
	movq	%rax, %rsi
	leaq	.LC18(%rip), %rax
	movq	%rax, %rdi
	movl	$0, %eax
	call	__isoc99_scanf@PLT
	.loc 1 54 4
	leaq	.LC24(%rip), %rax
	movq	%rax, %rdi
	movl	$0, %eax
	call	printf@PLT
	.loc 1 55 4
	leaq	-72(%rbp), %rax
	movq	%rax, %rsi
	leaq	.LC18(%rip), %rax
	movq	%rax, %rdi
	movl	$0, %eax
	call	__isoc99_scanf@PLT
	.loc 1 57 11
	movsd	-80(%rbp), %xmm0
	movq	-48(%rbp), %rax
	movapd	%xmm0, %xmm1
	movq	%rax, %xmm0
	call	areaParalelogramo@PLT
	movq	%xmm0, %rax
	movq	%rax, -24(%rbp)
	.loc 1 58 16
	movsd	-72(%rbp), %xmm0
	movq	-48(%rbp), %rax
	movapd	%xmm0, %xmm1
	movq	%rax, %xmm0
	call	perimetroParalelogramo@PLT
	movq	%xmm0, %rax
	movq	%rax, -16(%rbp)
	.loc 1 60 4
	movsd	-16(%rbp), %xmm0
	movq	-24(%rbp), %rax
	movapd	%xmm0, %xmm1
	movq	%rax, %xmm0
	call	mostrarResultado
	.loc 1 61 4
	jmp	.L18
.L15:
	.loc 1 64 4
	leaq	.LC25(%rip), %rax
	movq	%rax, %rdi
	movl	$0, %eax
	call	printf@PLT
	.loc 1 65 4
	leaq	-72(%rbp), %rax
	movq	%rax, %rsi
	leaq	.LC18(%rip), %rax
	movq	%rax, %rdi
	movl	$0, %eax
	call	__isoc99_scanf@PLT
	.loc 1 67 11
	movq	-72(%rbp), %rax
	movq	%rax, %xmm0
	call	areaCuadrado@PLT
	movq	%xmm0, %rax
	movq	%rax, -24(%rbp)
	.loc 1 68 16
	movq	-72(%rbp), %rax
	movq	%rax, %xmm0
	call	perimetroCuadrado@PLT
	movq	%xmm0, %rax
	movq	%rax, -16(%rbp)
	.loc 1 70 4
	movsd	-16(%rbp), %xmm0
	movq	-24(%rbp), %rax
	movapd	%xmm0, %xmm1
	movq	%rax, %xmm0
	call	mostrarResultado
	.loc 1 71 4
	jmp	.L18
.L14:
	.loc 1 74 4
	leaq	.LC26(%rip), %rax
	movq	%rax, %rdi
	movl	$0, %eax
	call	printf@PLT
	.loc 1 75 4
	leaq	-64(%rbp), %rax
	movq	%rax, %rsi
	leaq	.LC18(%rip), %rax
	movq	%rax, %rdi
	movl	$0, %eax
	call	__isoc99_scanf@PLT
	.loc 1 76 4
	leaq	.LC27(%rip), %rax
	movq	%rax, %rdi
	movl	$0, %eax
	call	printf@PLT
	.loc 1 77 4
	leaq	-80(%rbp), %rax
	movq	%rax, %rsi
	leaq	.LC18(%rip), %rax
	movq	%rax, %rdi
	movl	$0, %eax
	call	__isoc99_scanf@PLT
	.loc 1 79 11
	movsd	-80(%rbp), %xmm0
	movq	-64(%rbp), %rax
	movapd	%xmm0, %xmm1
	movq	%rax, %xmm0
	call	areaRectangulo@PLT
	movq	%xmm0, %rax
	movq	%rax, -24(%rbp)
	.loc 1 80 16
	movsd	-80(%rbp), %xmm0
	movq	-64(%rbp), %rax
	movapd	%xmm0, %xmm1
	movq	%rax, %xmm0
	call	perimetroRectangulo@PLT
	movq	%xmm0, %rax
	movq	%rax, -16(%rbp)
	.loc 1 82 4
	movsd	-16(%rbp), %xmm0
	movq	-24(%rbp), %rax
	movapd	%xmm0, %xmm1
	movq	%rax, %xmm0
	call	mostrarResultado
	.loc 1 83 4
	jmp	.L18
.L13:
	.loc 1 86 4
	leaq	.LC28(%rip), %rax
	movq	%rax, %rdi
	movl	$0, %eax
	call	printf@PLT
	.loc 1 87 4
	leaq	-56(%rbp), %rax
	movq	%rax, %rsi
	leaq	.LC18(%rip), %rax
	movq	%rax, %rdi
	movl	$0, %eax
	call	__isoc99_scanf@PLT
	.loc 1 88 4
	leaq	.LC29(%rip), %rax
	movq	%rax, %rdi
	movl	$0, %eax
	call	printf@PLT
	.loc 1 89 4
	leaq	-48(%rbp), %rax
	movq	%rax, %rsi
	leaq	.LC18(%rip), %rax
	movq	%rax, %rdi
	movl	$0, %eax
	call	__isoc99_scanf@PLT
	.loc 1 90 4
	leaq	.LC30(%rip), %rax
	movq	%rax, %rdi
	movl	$0, %eax
	call	printf@PLT
	.loc 1 91 4
	leaq	-72(%rbp), %rax
	movq	%rax, %rsi
	leaq	.LC18(%rip), %rax
	movq	%rax, %rdi
	movl	$0, %eax
	call	__isoc99_scanf@PLT
	.loc 1 93 11
	movsd	-48(%rbp), %xmm0
	movq	-56(%rbp), %rax
	movapd	%xmm0, %xmm1
	movq	%rax, %xmm0
	call	areaRombo@PLT
	movq	%xmm0, %rax
	movq	%rax, -24(%rbp)
	.loc 1 94 16
	movq	-72(%rbp), %rax
	movq	%rax, %xmm0
	call	perimetroRombo@PLT
	movq	%xmm0, %rax
	movq	%rax, -16(%rbp)
	.loc 1 96 4
	movsd	-16(%rbp), %xmm0
	movq	-24(%rbp), %rax
	movapd	%xmm0, %xmm1
	movq	%rax, %xmm0
	call	mostrarResultado
	.loc 1 97 4
	jmp	.L18
.L12:
	.loc 1 100 4
	leaq	.LC31(%rip), %rax
	movq	%rax, %rdi
	movl	$0, %eax
	call	printf@PLT
	.loc 1 101 4
	leaq	-56(%rbp), %rax
	movq	%rax, %rsi
	leaq	.LC18(%rip), %rax
	movq	%rax, %rdi
	movl	$0, %eax
	call	__isoc99_scanf@PLT
	.loc 1 102 4
	leaq	.LC32(%rip), %rax
	movq	%rax, %rdi
	movl	$0, %eax
	call	printf@PLT
	.loc 1 103 4
	leaq	-48(%rbp), %rax
	movq	%rax, %rsi
	leaq	.LC18(%rip), %rax
	movq	%rax, %rdi
	movl	$0, %eax
	call	__isoc99_scanf@PLT
	.loc 1 104 4
	leaq	.LC33(%rip), %rax
	movq	%rax, %rdi
	movl	$0, %eax
	call	printf@PLT
	.loc 1 105 4
	leaq	-80(%rbp), %rax
	movq	%rax, %rsi
	leaq	.LC18(%rip), %rax
	movq	%rax, %rdi
	movl	$0, %eax
	call	__isoc99_scanf@PLT
	.loc 1 106 4
	leaq	.LC34(%rip), %rax
	movq	%rax, %rdi
	movl	$0, %eax
	call	printf@PLT
	.loc 1 107 4
	leaq	-72(%rbp), %rax
	movq	%rax, %rsi
	leaq	.LC18(%rip), %rax
	movq	%rax, %rdi
	movl	$0, %eax
	call	__isoc99_scanf@PLT
	.loc 1 108 4
	leaq	.LC35(%rip), %rax
	movq	%rax, %rdi
	movl	$0, %eax
	call	printf@PLT
	.loc 1 109 4
	leaq	-64(%rbp), %rax
	movq	%rax, %rsi
	leaq	.LC18(%rip), %rax
	movq	%rax, %rdi
	movl	$0, %eax
	call	__isoc99_scanf@PLT
	.loc 1 111 11
	movsd	-80(%rbp), %xmm1
	movsd	-48(%rbp), %xmm0
	movq	-56(%rbp), %rax
	movapd	%xmm1, %xmm2
	movapd	%xmm0, %xmm1
	movq	%rax, %xmm0
	call	areaTrapecio@PLT
	movq	%xmm0, %rax
	movq	%rax, -24(%rbp)
	.loc 1 112 16
	movsd	-48(%rbp), %xmm2
	movsd	-56(%rbp), %xmm1
	movsd	-64(%rbp), %xmm0
	movq	-72(%rbp), %rax
	movapd	%xmm2, %xmm3
	movapd	%xmm1, %xmm2
	movapd	%xmm0, %xmm1
	movq	%rax, %xmm0
	call	perimetroTrapecio@PLT
	movq	%xmm0, %rax
	movq	%rax, -16(%rbp)
	.loc 1 114 4
	movsd	-16(%rbp), %xmm0
	movq	-24(%rbp), %rax
	movapd	%xmm0, %xmm1
	movq	%rax, %xmm0
	call	mostrarResultado
	.loc 1 115 4
	jmp	.L18
.L11:
	.loc 1 118 4
	leaq	.LC36(%rip), %rax
	movq	%rax, %rdi
	movl	$0, %eax
	call	printf@PLT
	.loc 1 119 4
	leaq	-48(%rbp), %rax
	movq	%rax, %rsi
	leaq	.LC18(%rip), %rax
	movq	%rax, %rdi
	movl	$0, %eax
	call	__isoc99_scanf@PLT
	.loc 1 121 11
	movq	-48(%rbp), %rax
	movq	%rax, %xmm0
	call	areaCirculo@PLT
	movq	%xmm0, %rax
	movq	%rax, -24(%rbp)
	.loc 1 122 16
	movq	-48(%rbp), %rax
	movq	%rax, %xmm0
	call	perimetroCirculo@PLT
	movq	%xmm0, %rax
	movq	%rax, -16(%rbp)
	.loc 1 124 4
	movsd	-16(%rbp), %xmm0
	movq	-24(%rbp), %rax
	movapd	%xmm0, %xmm1
	movq	%rax, %xmm0
	call	mostrarResultado
	.loc 1 125 4
	jmp	.L18
.L10:
	.loc 1 128 4
	leaq	.LC37(%rip), %rax
	movq	%rax, %rdi
	movl	$0, %eax
	call	printf@PLT
	.loc 1 129 4
	leaq	-48(%rbp), %rax
	movq	%rax, %rsi
	leaq	.LC38(%rip), %rax
	movq	%rax, %rdi
	movl	$0, %eax
	call	__isoc99_scanf@PLT
	.loc 1 130 4
	leaq	.LC39(%rip), %rax
	movq	%rax, %rdi
	movl	$0, %eax
	call	printf@PLT
	.loc 1 131 4
	leaq	-72(%rbp), %rax
	movq	%rax, %rsi
	leaq	.LC18(%rip), %rax
	movq	%rax, %rdi
	movl	$0, %eax
	call	__isoc99_scanf@PLT
	.loc 1 133 11
	movl	-48(%rbp), %edx
	movq	-72(%rbp), %rax
	movl	%edx, %edi
	movq	%rax, %xmm0
	call	areaPoligonoRegular@PLT
	movq	%xmm0, %rax
	movq	%rax, -24(%rbp)
	.loc 1 134 16
	movl	-48(%rbp), %edx
	movq	-72(%rbp), %rax
	movl	%edx, %edi
	movq	%rax, %xmm0
	call	perimetroPoligonoRegular@PLT
	movq	%xmm0, %rax
	movq	%rax, -16(%rbp)
	.loc 1 136 4
	movsd	-16(%rbp), %xmm0
	movq	-24(%rbp), %rax
	movapd	%xmm0, %xmm1
	movq	%rax, %xmm0
	call	mostrarResultado
	.loc 1 137 4
	jmp	.L18
.L9:
	.loc 1 140 4
	leaq	.LC40(%rip), %rax
	movq	%rax, %rdi
	movl	$0, %eax
	call	printf@PLT
	.loc 1 141 4
	leaq	-64(%rbp), %rax
	movq	%rax, %rsi
	leaq	.LC18(%rip), %rax
	movq	%rax, %rdi
	movl	$0, %eax
	call	__isoc99_scanf@PLT
	.loc 1 143 17
	movq	-64(%rbp), %rax
	movq	%rax, %xmm0
	call	superficieCubo@PLT
	movq	%xmm0, %rax
	movq	%rax, -40(%rbp)
	.loc 1 144 14
	movq	-64(%rbp), %rax
	movq	%rax, %xmm0
	call	volumenCubo@PLT
	movq	%xmm0, %rax
	movq	%rax, -32(%rbp)
	.loc 1 146 4
	movsd	-32(%rbp), %xmm0
	movq	-40(%rbp), %rax
	movapd	%xmm0, %xmm1
	movq	%rax, %xmm0
	call	mostrarResultado3D
	.loc 1 147 4
	jmp	.L18
.L8:
	.loc 1 150 4
	leaq	.LC41(%rip), %rax
	movq	%rax, %rdi
	movl	$0, %eax
	call	printf@PLT
	.loc 1 151 4
	leaq	-64(%rbp), %rax
	movq	%rax, %rsi
	leaq	.LC18(%rip), %rax
	movq	%rax, %rdi
	movl	$0, %eax
	call	__isoc99_scanf@PLT
	.loc 1 152 4
	leaq	.LC42(%rip), %rax
	movq	%rax, %rdi
	movl	$0, %eax
	call	printf@PLT
	.loc 1 153 4
	leaq	-56(%rbp), %rax
	movq	%rax, %rsi
	leaq	.LC18(%rip), %rax
	movq	%rax, %rdi
	movl	$0, %eax
	call	__isoc99_scanf@PLT
	.loc 1 154 4
	leaq	.LC43(%rip), %rax
	movq	%rax, %rdi
	movl	$0, %eax
	call	printf@PLT
	.loc 1 155 4
	leaq	-48(%rbp), %rax
	movq	%rax, %rsi
	leaq	.LC18(%rip), %rax
	movq	%rax, %rdi
	movl	$0, %eax
	call	__isoc99_scanf@PLT
	.loc 1 157 17
	movsd	-48(%rbp), %xmm1
	movsd	-56(%rbp), %xmm0
	movq	-64(%rbp), %rax
	movapd	%xmm1, %xmm2
	movapd	%xmm0, %xmm1
	movq	%rax, %xmm0
	call	superficieCuboide@PLT
	movq	%xmm0, %rax
	movq	%rax, -40(%rbp)
	.loc 1 158 14
	movsd	-48(%rbp), %xmm1
	movsd	-56(%rbp), %xmm0
	movq	-64(%rbp), %rax
	movapd	%xmm1, %xmm2
	movapd	%xmm0, %xmm1
	movq	%rax, %xmm0
	call	volumenCuboide@PLT
	movq	%xmm0, %rax
	movq	%rax, -32(%rbp)
	.loc 1 160 4
	movsd	-32(%rbp), %xmm0
	movq	-40(%rbp), %rax
	movapd	%xmm0, %xmm1
	movq	%rax, %xmm0
	call	mostrarResultado3D
	.loc 1 161 4
	jmp	.L18
.L7:
	.loc 1 164 4
	leaq	.LC44(%rip), %rax
	movq	%rax, %rdi
	movl	$0, %eax
	call	printf@PLT
	.loc 1 165 4
	leaq	-48(%rbp), %rax
	movq	%rax, %rsi
	leaq	.LC18(%rip), %rax
	movq	%rax, %rdi
	movl	$0, %eax
	call	__isoc99_scanf@PLT
	.loc 1 166 4
	leaq	.LC45(%rip), %rax
	movq	%rax, %rdi
	movl	$0, %eax
	call	printf@PLT
	.loc 1 167 4
	leaq	-80(%rbp), %rax
	movq	%rax, %rsi
	leaq	.LC18(%rip), %rax
	movq	%rax, %rdi
	movl	$0, %eax
	call	__isoc99_scanf@PLT
	.loc 1 169 17
	movsd	-80(%rbp), %xmm0
	movq	-48(%rbp), %rax
	movapd	%xmm0, %xmm1
	movq	%rax, %xmm0
	call	superficieCilindro@PLT
	movq	%xmm0, %rax
	movq	%rax, -40(%rbp)
	.loc 1 170 14
	movsd	-80(%rbp), %xmm0
	movq	-48(%rbp), %rax
	movapd	%xmm0, %xmm1
	movq	%rax, %xmm0
	call	volumenCilindro@PLT
	movq	%xmm0, %rax
	movq	%rax, -32(%rbp)
	.loc 1 172 4
	movsd	-32(%rbp), %xmm0
	movq	-40(%rbp), %rax
	movapd	%xmm0, %xmm1
	movq	%rax, %xmm0
	call	mostrarResultado3D
	.loc 1 173 4
	jmp	.L18
.L6:
	.loc 1 176 4
	leaq	.LC46(%rip), %rax
	movq	%rax, %rdi
	movl	$0, %eax
	call	printf@PLT
	.loc 1 177 4
	leaq	-48(%rbp), %rax
	movq	%rax, %rsi
	leaq	.LC18(%rip), %rax
	movq	%rax, %rdi
	movl	$0, %eax
	call	__isoc99_scanf@PLT
	.loc 1 179 17
	movq	-48(%rbp), %rax
	movq	%rax, %xmm0
	call	superficieEsfera@PLT
	movq	%xmm0, %rax
	movq	%rax, -40(%rbp)
	.loc 1 180 14
	movq	-48(%rbp), %rax
	movq	%rax, %xmm0
	call	volumenEsfera@PLT
	movq	%xmm0, %rax
	movq	%rax, -32(%rbp)
	.loc 1 182 4
	movsd	-32(%rbp), %xmm0
	movq	-40(%rbp), %rax
	movapd	%xmm0, %xmm1
	movq	%rax, %xmm0
	call	mostrarResultado3D
	.loc 1 183 4
	jmp	.L18
.L4:
	.loc 1 186 4
	leaq	.LC47(%rip), %rax
	movq	%rax, %rdi
	movl	$0, %eax
	call	printf@PLT
	.loc 1 187 4
	leaq	-48(%rbp), %rax
	movq	%rax, %rsi
	leaq	.LC18(%rip), %rax
	movq	%rax, %rdi
	movl	$0, %eax
	call	__isoc99_scanf@PLT
	.loc 1 188 4
	leaq	.LC48(%rip), %rax
	movq	%rax, %rdi
	movl	$0, %eax
	call	printf@PLT
	.loc 1 189 4
	leaq	-80(%rbp), %rax
	movq	%rax, %rsi
	leaq	.LC18(%rip), %rax
	movq	%rax, %rdi
	movl	$0, %eax
	call	__isoc99_scanf@PLT
	.loc 1 191 17
	movsd	-80(%rbp), %xmm0
	movq	-48(%rbp), %rax
	movapd	%xmm0, %xmm1
	movq	%rax, %xmm0
	call	superficieCono@PLT
	movq	%xmm0, %rax
	movq	%rax, -40(%rbp)
	.loc 1 192 14
	movsd	-80(%rbp), %xmm0
	movq	-48(%rbp), %rax
	movapd	%xmm0, %xmm1
	movq	%rax, %xmm0
	call	volumenCono@PLT
	movq	%xmm0, %rax
	movq	%rax, -32(%rbp)
	.loc 1 194 4
	movsd	-32(%rbp), %xmm0
	movq	-40(%rbp), %rax
	movapd	%xmm0, %xmm1
	movq	%rax, %xmm0
	call	mostrarResultado3D
	.loc 1 195 4
	jmp	.L18
.L3:
	.loc 1 198 4
	leaq	.LC49(%rip), %rax
	movq	%rax, %rdi
	call	puts@PLT
	.loc 1 199 4
	nop
.L18:
	.loc 1 201 1
	nop
	movq	-8(%rbp), %rax
	subq	%fs:40, %rax
	je	.L19
	call	__stack_chk_fail@PLT
.L19:
	leave
	.cfi_def_cfa 7, 8
	ret
	.cfi_endproc
.LFE1:
	.size	solicitarDatosFigura, .-solicitarDatosFigura
	.section	.rodata
.LC50:
	.string	"El \303\241rea es: %.2f\n"
.LC51:
	.string	"El per\303\255metro es: %.2f\n"
	.text
	.globl	mostrarResultado
	.type	mostrarResultado, @function
mostrarResultado:
.LFB2:
	.loc 1 203 54
	.cfi_startproc
	endbr64
	pushq	%rbp
	.cfi_def_cfa_offset 16
	.cfi_offset 6, -16
	movq	%rsp, %rbp
	.cfi_def_cfa_register 6
	subq	$16, %rsp
	movsd	%xmm0, -8(%rbp)
	movsd	%xmm1, -16(%rbp)
	.loc 1 204 2
	movq	-8(%rbp), %rax
	movq	%rax, %xmm0
	leaq	.LC50(%rip), %rax
	movq	%rax, %rdi
	movl	$1, %eax
	call	printf@PLT
	.loc 1 205 2
	movq	-16(%rbp), %rax
	movq	%rax, %xmm0
	leaq	.LC51(%rip), %rax
	movq	%rax, %rdi
	movl	$1, %eax
	call	printf@PLT
	.loc 1 206 1
	nop
	leave
	.cfi_def_cfa 7, 8
	ret
	.cfi_endproc
.LFE2:
	.size	mostrarResultado, .-mostrarResultado
	.section	.rodata
.LC52:
	.string	"Superficie: %.2lf\n"
.LC53:
	.string	"Volumen: %.2lf\n"
	.text
	.globl	mostrarResultado3D
	.type	mostrarResultado3D, @function
mostrarResultado3D:
.LFB3:
	.loc 1 208 60
	.cfi_startproc
	endbr64
	pushq	%rbp
	.cfi_def_cfa_offset 16
	.cfi_offset 6, -16
	movq	%rsp, %rbp
	.cfi_def_cfa_register 6
	subq	$16, %rsp
	movsd	%xmm0, -8(%rbp)
	movsd	%xmm1, -16(%rbp)
	.loc 1 209 2
	movq	-8(%rbp), %rax
	movq	%rax, %xmm0
	leaq	.LC52(%rip), %rax
	movq	%rax, %rdi
	movl	$1, %eax
	call	printf@PLT
	.loc 1 210 2
	movq	-16(%rbp), %rax
	movq	%rax, %xmm0
	leaq	.LC53(%rip), %rax
	movq	%rax, %rdi
	movl	$1, %eax
	call	printf@PLT
	.loc 1 211 1
	nop
	leave
	.cfi_def_cfa 7, 8
	ret
	.cfi_endproc
.LFE3:
	.size	mostrarResultado3D, .-mostrarResultado3D
.Letext0:
	.file 2 "calculos.h"
	.file 3 "/usr/include/stdio.h"
	.section	.note.GNU-stack,"",@progbits
	.section	.note.gnu.property,"a"
	.align 8
	.long	1f - 0f
	.long	4f - 1f
	.long	5
0:
	.string	"GNU"
1:
	.align 8
	.long	0xc0000002
	.long	3f - 2f
2:
	.long	0x3
3:
	.align 8
4:
